; ModuleID = '47/5231.cpp'
source_filename = "47/5231.cpp"
target datalayout = "e-m:e-p270:32:32-p271:32:32-p272:64:64-i64:64-f80:128-n8:16:32:64-S128"
target triple = "x86_64-pc-linux-gnu"

%"class.std::ios_base::Init" = type { i8 }
%"class.std::basic_istream" = type { i32 (...)**, i64, %"class.std::basic_ios" }
%"class.std::basic_ios" = type { %"class.std::ios_base", %"class.std::basic_ostream"*, i8, i8, %"class.std::basic_streambuf"*, %"class.std::ctype"*, %"class.std::num_put"*, %"class.std::num_get"* }
%"class.std::ios_base" = type { i32 (...)**, i64, i64, i32, i32, i32, %"struct.std::ios_base::_Callback_list"*, %"struct.std::ios_base::_Words", [8 x %"struct.std::ios_base::_Words"], i32, %"struct.std::ios_base::_Words"*, %"class.std::locale" }
%"struct.std::ios_base::_Callback_list" = type { %"struct.std::ios_base::_Callback_list"*, void (i32, %"class.std::ios_base"*, i32)*, i32, i32 }
%"struct.std::ios_base::_Words" = type { i8*, i64 }
%"class.std::locale" = type { %"class.std::locale::_Impl"* }
%"class.std::locale::_Impl" = type { i32, %"class.std::locale::facet"**, i64, %"class.std::locale::facet"**, i8** }
%"class.std::locale::facet" = type <{ i32 (...)**, i32, [4 x i8] }>
%"class.std::basic_ostream" = type { i32 (...)**, %"class.std::basic_ios" }
%"class.std::basic_streambuf" = type { i32 (...)**, i8*, i8*, i8*, i8*, i8*, i8*, %"class.std::locale" }
%"class.std::ctype" = type <{ %"class.std::locale::facet.base", [4 x i8], %struct.__locale_struct*, i8, [7 x i8], i32*, i32*, i16*, i8, [256 x i8], [256 x i8], i8, [6 x i8] }>
%"class.std::locale::facet.base" = type <{ i32 (...)**, i32 }>
%struct.__locale_struct = type { [13 x %struct.__locale_data*], i16*, i32*, i32*, [13 x i8*] }
%struct.__locale_data = type opaque
%"class.std::num_put" = type { %"class.std::locale::facet.base", [4 x i8] }
%"class.std::num_get" = type { %"class.std::locale::facet.base", [4 x i8] }

@_ZStL8__ioinit = internal global %"class.std::ios_base::Init" zeroinitializer, align 1
@__dso_handle = external hidden global i8
@_ZSt3cin = external dso_local global %"class.std::basic_istream", align 8
@_ZSt4cout = external dso_local global %"class.std::basic_ostream", align 8
@llvm.global_ctors = appending global [1 x { i32, void ()*, i8* }] [{ i32, void ()*, i8* } { i32 65535, void ()* @_GLOBAL__sub_I_5231.cpp, i8* null }]

; Function Attrs: noinline uwtable
define internal void @__cxx_global_var_init() #0 section ".text.startup" {
  call void @_ZNSt8ios_base4InitC1Ev(%"class.std::ios_base::Init"* @_ZStL8__ioinit)
  %1 = call i32 @__cxa_atexit(void (i8*)* bitcast (void (%"class.std::ios_base::Init"*)* @_ZNSt8ios_base4InitD1Ev to void (i8*)*), i8* getelementptr inbounds (%"class.std::ios_base::Init", %"class.std::ios_base::Init"* @_ZStL8__ioinit, i32 0, i32 0), i8* @__dso_handle) #3
  ret void
}

declare dso_local void @_ZNSt8ios_base4InitC1Ev(%"class.std::ios_base::Init"*) unnamed_addr #1

; Function Attrs: nounwind
declare dso_local void @_ZNSt8ios_base4InitD1Ev(%"class.std::ios_base::Init"*) unnamed_addr #2

; Function Attrs: nounwind
declare dso_local i32 @__cxa_atexit(void (i8*)*, i8*, i8*) #3

; Function Attrs: noinline norecurse uwtable
define dso_local i32 @main() #4 {
  %1 = alloca i32, align 4
  %2 = alloca i32, align 4
  %3 = alloca [10000 x i32], align 16
  %4 = alloca i32, align 4
  %5 = alloca i32*, align 8
  %6 = alloca i32, align 4
  %7 = alloca i32, align 4
  %8 = alloca i32, align 4
  store i32 0, i32* %1, align 4
  store i32* null, i32** %5, align 8
  %9 = call dereferenceable(280) %"class.std::basic_istream"* @_ZNSirsERi(%"class.std::basic_istream"* @_ZSt3cin, i32* dereferenceable(4) %2)
  store i32 0, i32* %6, align 4
  br label %10

10:                                               ; preds = %19, %0
  %11 = load i32, i32* %6, align 4
  %12 = load i32, i32* %2, align 4
  %13 = icmp slt i32 %11, %12
  br i1 %13, label %14, label %22

14:                                               ; preds = %10
  %15 = load i32, i32* %6, align 4
  %16 = sext i32 %15 to i64
  %17 = getelementptr inbounds [10000 x i32], [10000 x i32]* %3, i64 0, i64 %16
  %18 = call dereferenceable(280) %"class.std::basic_istream"* @_ZNSirsERi(%"class.std::basic_istream"* @_ZSt3cin, i32* dereferenceable(4) %17)
  br label %19

19:                                               ; preds = %14
  %20 = load i32, i32* %6, align 4
  %21 = add nsw i32 %20, 1
  store i32 %21, i32* %6, align 4
  br label %10

22:                                               ; preds = %10
  %23 = getelementptr inbounds [10000 x i32], [10000 x i32]* %3, i64 0, i64 0
  store i32* %23, i32** %5, align 8
  store i32 0, i32* %7, align 4
  br label %24

24:                                               ; preds = %59, %22
  %25 = load i32, i32* %7, align 4
  %26 = load i32, i32* %2, align 4
  %27 = sdiv i32 %26, 2
  %28 = icmp slt i32 %25, %27
  br i1 %28, label %29, label %62

29:                                               ; preds = %24
  %30 = load i32*, i32** %5, align 8
  %31 = load i32, i32* %7, align 4
  %32 = sext i32 %31 to i64
  %33 = getelementptr inbounds i32, i32* %30, i64 %32
  %34 = load i32, i32* %33, align 4
  store i32 %34, i32* %4, align 4
  %35 = load i32*, i32** %5, align 8
  %36 = load i32, i32* %2, align 4
  %37 = sext i32 %36 to i64
  %38 = getelementptr inbounds i32, i32* %35, i64 %37
  %39 = getelementptr inbounds i32, i32* %38, i64 -1
  %40 = load i32, i32* %7, align 4
  %41 = sext i32 %40 to i64
  %42 = sub i64 0, %41
  %43 = getelementptr inbounds i32, i32* %39, i64 %42
  %44 = load i32, i32* %43, align 4
  %45 = load i32*, i32** %5, align 8
  %46 = load i32, i32* %7, align 4
  %47 = sext i32 %46 to i64
  %48 = getelementptr inbounds i32, i32* %45, i64 %47
  store i32 %44, i32* %48, align 4
  %49 = load i32, i32* %4, align 4
  %50 = load i32*, i32** %5, align 8
  %51 = load i32, i32* %2, align 4
  %52 = sext i32 %51 to i64
  %53 = getelementptr inbounds i32, i32* %50, i64 %52
  %54 = getelementptr inbounds i32, i32* %53, i64 -1
  %55 = load i32, i32* %7, align 4
  %56 = sext i32 %55 to i64
  %57 = sub i64 0, %56
  %58 = getelementptr inbounds i32, i32* %54, i64 %57
  store i32 %49, i32* %58, align 4
  br label %59

59:                                               ; preds = %29
  %60 = load i32, i32* %7, align 4
  %61 = add nsw i32 %60, 1
  store i32 %61, i32* %7, align 4
  br label %24

62:                                               ; preds = %24
  %63 = load i32*, i32** %5, align 8
  %64 = load i32, i32* %63, align 4
  %65 = call dereferenceable(272) %"class.std::basic_ostream"* @_ZNSolsEi(%"class.std::basic_ostream"* @_ZSt4cout, i32 %64)
  %66 = load i32*, i32** %5, align 8
  %67 = getelementptr inbounds i32, i32* %66, i32 1
  store i32* %67, i32** %5, align 8
  store i32 1, i32* %8, align 4
  br label %68

68:                                               ; preds = %77, %62
  %69 = load i32, i32* %8, align 4
  %70 = load i32, i32* %2, align 4
  %71 = icmp slt i32 %69, %70
  br i1 %71, label %72, label %82

72:                                               ; preds = %68
  %73 = call dereferenceable(272) %"class.std::basic_ostream"* @_ZStlsISt11char_traitsIcEERSt13basic_ostreamIcT_ES5_c(%"class.std::basic_ostream"* dereferenceable(272) @_ZSt4cout, i8 signext 32)
  %74 = load i32*, i32** %5, align 8
  %75 = load i32, i32* %74, align 4
  %76 = call dereferenceable(272) %"class.std::basic_ostream"* @_ZNSolsEi(%"class.std::basic_ostream"* %73, i32 %75)
  br label %77

77:                                               ; preds = %72
  %78 = load i32, i32* %8, align 4
  %79 = add nsw i32 %78, 1
  store i32 %79, i32* %8, align 4
  %80 = load i32*, i32** %5, align 8
  %81 = getelementptr inbounds i32, i32* %80, i32 1
  store i32* %81, i32** %5, align 8
  br label %68

82:                                               ; preds = %68
  ret i32 0
}

declare dso_local dereferenceable(280) %"class.std::basic_istream"* @_ZNSirsERi(%"class.std::basic_istream"*, i32* dereferenceable(4)) #1

declare dso_local dereferenceable(272) %"class.std::basic_ostream"* @_ZNSolsEi(%"class.std::basic_ostream"*, i32) #1

declare dso_local dereferenceable(272) %"class.std::basic_ostream"* @_ZStlsISt11char_traitsIcEERSt13basic_ostreamIcT_ES5_c(%"class.std::basic_ostream"* dereferenceable(272), i8 signext) #1

; Function Attrs: noinline uwtable
define internal void @_GLOBAL__sub_I_5231.cpp() #0 section ".text.startup" {
  call void @__cxx_global_var_init()
  ret void
}


!llvm.module.flags = !{!0}
!llvm.ident = !{!1}

!0 = !{i32 1, !"wchar_size", i32 4}
!1 = !{!"clang version 10.0.0-4ubuntu1 "}
